target datalayout = "e-m:e-p270:32:32-p271:32:32-p272:64:64-i64:64-i128:128-f80:128-n8:16:32:64-S128"
target triple = "x86_64-pc-linux-gnu"

%struct.PREDICATELOCKTARGETTAG = type { i32, i32, i32, i32 }
%union.LWLockPadded = type { %struct.LWLock, [112 x i8] }
%struct.LWLock = type { i16, %struct.pg_atomic_uint32, %struct.proclist_head }
%struct.pg_atomic_uint32 = type { i32 }
%struct.proclist_head = type { i32, i32 }
%struct.dlist_head = type { %struct.dlist_node }
%struct.dlist_node = type { ptr, ptr }
%struct.SERIALIZABLEXACT = type { %struct.VirtualTransactionId, i64, i64, %union.anon, %struct.dlist_head, %struct.dlist_head, %struct.dlist_head, %struct.dlist_node, %struct.dlist_node, %struct.LWLock, %struct.dlist_head, i32, i32, i32, i32, i32, i32 }
%struct.VirtualTransactionId = type { i32, i32 }
%union.anon = type { i64 }
%struct.PREDICATELOCKTAG = type { ptr, ptr }
%struct.PREDICATELOCKTARGET = type { %struct.PREDICATELOCKTARGETTAG, %struct.dlist_head }
%struct.PREDICATELOCK = type { %struct.PREDICATELOCKTAG, %struct.dlist_node, %struct.dlist_node, i64 }

@MainLWLockArray = external global ptr, align 8
@PredicateLockTargetHash = internal global ptr null, align 8
@PredicateLockHash = internal global ptr null, align 8
@.str.10 = private unnamed_addr constant [12 x i8] c"predicate.c\00", align 1
@.str.21 = private unnamed_addr constant [21 x i8] c"out of shared memory\00", align 1
@.str.31 = private unnamed_addr constant [33 x i8] c"You might need to increase \22%s\22.\00", align 1
@.str.32 = private unnamed_addr constant [31 x i8] c"max_pred_locks_per_transaction\00", align 1
@__func__.CreatePredicateLock = private unnamed_addr constant [20 x i8] c"CreatePredicateLock\00", align 1

; Function Attrs: inlinehint nounwind uwtable
define internal void @dlist_push_tail(ptr noundef %0, ptr noundef %1) #3 {
  %3 = alloca ptr, align 8
  %4 = alloca ptr, align 8
  store ptr %0, ptr %3, align 8
  store ptr %1, ptr %4, align 8
  %5 = load ptr, ptr %3, align 8
  %6 = getelementptr inbounds nuw %struct.dlist_head, ptr %5, i32 0, i32 0
  %7 = getelementptr inbounds nuw %struct.dlist_node, ptr %6, i32 0, i32 1
  %8 = load ptr, ptr %7, align 8
  %9 = icmp eq ptr %8, null
  br i1 %9, label %10, label %12

10:                                               ; preds = %2
  %11 = load ptr, ptr %3, align 8
  call void @dlist_init(ptr noundef %11)
  br label %12

12:                                               ; preds = %10, %2
  %13 = load ptr, ptr %3, align 8
  %14 = getelementptr inbounds nuw %struct.dlist_head, ptr %13, i32 0, i32 0
  %15 = load ptr, ptr %4, align 8
  %16 = getelementptr inbounds nuw %struct.dlist_node, ptr %15, i32 0, i32 1
  store ptr %14, ptr %16, align 8
  %17 = load ptr, ptr %3, align 8
  %18 = getelementptr inbounds nuw %struct.dlist_head, ptr %17, i32 0, i32 0
  %19 = getelementptr inbounds nuw %struct.dlist_node, ptr %18, i32 0, i32 0
  %20 = load ptr, ptr %19, align 8
  %21 = load ptr, ptr %4, align 8
  %22 = getelementptr inbounds nuw %struct.dlist_node, ptr %21, i32 0, i32 0
  store ptr %20, ptr %22, align 8
  %23 = load ptr, ptr %4, align 8
  %24 = load ptr, ptr %4, align 8
  %25 = getelementptr inbounds nuw %struct.dlist_node, ptr %24, i32 0, i32 0
  %26 = load ptr, ptr %25, align 8
  %27 = getelementptr inbounds nuw %struct.dlist_node, ptr %26, i32 0, i32 1
  store ptr %23, ptr %27, align 8
  %28 = load ptr, ptr %4, align 8
  %29 = load ptr, ptr %3, align 8
  %30 = getelementptr inbounds nuw %struct.dlist_head, ptr %29, i32 0, i32 0
  %31 = getelementptr inbounds nuw %struct.dlist_node, ptr %30, i32 0, i32 0
  store ptr %28, ptr %31, align 8
  ret void
}

; Function Attrs: inlinehint nounwind uwtable
define internal i64 @PointerGetDatum(ptr noundef %0) #3 {
  %2 = alloca ptr, align 8
  store ptr %0, ptr %2, align 8
  %3 = load ptr, ptr %2, align 8
  %4 = ptrtoint ptr %3 to i64
  ret i64 %4
}

; Function Attrs: inlinehint nounwind uwtable
define internal void @dlist_init(ptr noundef %0) #3 {
  %2 = alloca ptr, align 8
  store ptr %0, ptr %2, align 8
  %3 = load ptr, ptr %2, align 8
  %4 = getelementptr inbounds nuw %struct.dlist_head, ptr %3, i32 0, i32 0
  %5 = load ptr, ptr %2, align 8
  %6 = getelementptr inbounds nuw %struct.dlist_head, ptr %5, i32 0, i32 0
  %7 = getelementptr inbounds nuw %struct.dlist_node, ptr %6, i32 0, i32 0
  store ptr %4, ptr %7, align 8
  %8 = load ptr, ptr %2, align 8
  %9 = getelementptr inbounds nuw %struct.dlist_head, ptr %8, i32 0, i32 0
  %10 = getelementptr inbounds nuw %struct.dlist_node, ptr %9, i32 0, i32 1
  store ptr %4, ptr %10, align 8
  ret void
}

; Function Attrs: nounwind uwtable
define internal void @CreatePredicateLock(ptr noundef %0, i32 noundef %1, ptr noundef %2) #0 {
  %4 = alloca ptr, align 8
  %5 = alloca i32, align 4
  %6 = alloca ptr, align 8
  %7 = alloca ptr, align 8
  %8 = alloca %struct.PREDICATELOCKTAG, align 8
  %9 = alloca ptr, align 8
  %10 = alloca ptr, align 8
  %11 = alloca i8, align 1
  store ptr %0, ptr %4, align 8
  store i32 %1, ptr %5, align 4
  store ptr %2, ptr %6, align 8
  call void @llvm.lifetime.start.p0(i64 8, ptr %7) #10
  call void @llvm.lifetime.start.p0(i64 16, ptr %8) #10
  call void @llvm.lifetime.start.p0(i64 8, ptr %9) #10
  call void @llvm.lifetime.start.p0(i64 8, ptr %10) #10
  call void @llvm.lifetime.start.p0(i64 1, ptr %11) #10
  %12 = load ptr, ptr @MainLWLockArray, align 8
  %13 = load i32, ptr %5, align 4
  %14 = urem i32 %13, 16
  %15 = add i32 197, %14
  %16 = zext i32 %15 to i64
  %17 = getelementptr inbounds nuw %union.LWLockPadded, ptr %12, i64 %16
  store ptr %17, ptr %10, align 8
  %18 = load ptr, ptr @MainLWLockArray, align 8
  %19 = getelementptr inbounds %union.LWLockPadded, ptr %18, i64 30
  %20 = call zeroext i1 @LWLockAcquire(ptr noundef %19, i32 noundef 1)
  %21 = call zeroext i1 @IsInParallelMode()
  br i1 %21, label %22, label %26

22:                                               ; preds = %3
  %23 = load ptr, ptr %6, align 8
  %24 = getelementptr inbounds nuw %struct.SERIALIZABLEXACT, ptr %23, i32 0, i32 9
  %25 = call zeroext i1 @LWLockAcquire(ptr noundef %24, i32 noundef 0)
  br label %26

26:                                               ; preds = %22, %3
  %27 = load ptr, ptr %10, align 8
  %28 = call zeroext i1 @LWLockAcquire(ptr noundef %27, i32 noundef 0)
  %29 = load ptr, ptr @PredicateLockTargetHash, align 8
  %30 = load ptr, ptr %4, align 8
  %31 = load i32, ptr %5, align 4
  %32 = call ptr @hash_search_with_hash_value(ptr noundef %29, ptr noundef %30, i32 noundef %31, i32 noundef 3, ptr noundef %11)
  store ptr %32, ptr %7, align 8
  %33 = load ptr, ptr %7, align 8
  %34 = icmp ne ptr %33, null
  br i1 %34, label %48, label %35

35:                                               ; preds = %26
  br label %36

36:                                               ; preds = %35
  br i1 true, label %37, label %39

37:                                               ; preds = %36
  %38 = call zeroext i1 @errstart_cold(i32 noundef 21, ptr noundef null) #11
  br i1 %38, label %41, label %45

39:                                               ; preds = %36
  %40 = call zeroext i1 @errstart(i32 noundef 21, ptr noundef null)
  br i1 %40, label %41, label %45

41:                                               ; preds = %39, %37
  %42 = call i32 @errcode(i32 noundef 8389)
  %43 = call i32 (ptr, ...) @errmsg(ptr noundef @.str.21)
  %44 = call i32 (ptr, ...) @errhint(ptr noundef @.str.31, ptr noundef @.str.32)
  call void @errfinish(ptr noundef @.str.10, i32 noundef 2469, ptr noundef @__func__.CreatePredicateLock)
  br label %45

45:                                               ; preds = %41, %39, %37
  unreachable

46:                                               ; No predecessors!
  br label %47

47:                                               ; preds = %46
  br label %48

48:                                               ; preds = %47, %26
  %49 = load i8, ptr %11, align 1, !range !4, !noundef !5
  %50 = trunc i8 %49 to i1
  br i1 %50, label %54, label %51

51:                                               ; preds = %48
  %52 = load ptr, ptr %7, align 8
  %53 = getelementptr inbounds nuw %struct.PREDICATELOCKTARGET, ptr %52, i32 0, i32 1
  call void @dlist_init(ptr noundef %53)
  br label %54

54:                                               ; preds = %51, %48
  %55 = load ptr, ptr %7, align 8
  %56 = getelementptr inbounds nuw %struct.PREDICATELOCKTAG, ptr %8, i32 0, i32 0
  store ptr %55, ptr %56, align 8
  %57 = load ptr, ptr %6, align 8
  %58 = getelementptr inbounds nuw %struct.PREDICATELOCKTAG, ptr %8, i32 0, i32 1
  store ptr %57, ptr %58, align 8
  %59 = load ptr, ptr @PredicateLockHash, align 8
  %60 = load i32, ptr %5, align 4
  %61 = getelementptr inbounds nuw %struct.PREDICATELOCKTAG, ptr %8, i32 0, i32 1
  %62 = load ptr, ptr %61, align 8
  %63 = call i64 @PointerGetDatum(ptr noundef %62)
  %64 = trunc i64 %63 to i32
  %65 = shl i32 %64, 4
  %66 = xor i32 %60, %65
  %67 = call ptr @hash_search_with_hash_value(ptr noundef %59, ptr noundef %8, i32 noundef %66, i32 noundef 3, ptr noundef %11)
  store ptr %67, ptr %9, align 8
  %68 = load ptr, ptr %9, align 8
  %69 = icmp ne ptr %68, null
  br i1 %69, label %83, label %70

70:                                               ; preds = %54
  br label %71

71:                                               ; preds = %70
  br i1 true, label %72, label %74

72:                                               ; preds = %71
  %73 = call zeroext i1 @errstart_cold(i32 noundef 21, ptr noundef null) #11
  br i1 %73, label %76, label %80

74:                                               ; preds = %71
  %75 = call zeroext i1 @errstart(i32 noundef 21, ptr noundef null)
  br i1 %75, label %76, label %80

76:                                               ; preds = %74, %72
  %77 = call i32 @errcode(i32 noundef 8389)
  %78 = call i32 (ptr, ...) @errmsg(ptr noundef @.str.21)
  %79 = call i32 (ptr, ...) @errhint(ptr noundef @.str.31, ptr noundef @.str.32)
  call void @errfinish(ptr noundef @.str.10, i32 noundef 2484, ptr noundef @__func__.CreatePredicateLock)
  br label %80

80:                                               ; preds = %76, %74, %72
  unreachable

81:                                               ; No predecessors!
  br label %82

82:                                               ; preds = %81
  br label %83

83:                                               ; preds = %82, %54
  %84 = load i8, ptr %11, align 1, !range !4, !noundef !5
  %85 = trunc i8 %84 to i1
  br i1 %85, label %97, label %86

86:                                               ; preds = %83
  %87 = load ptr, ptr %7, align 8
  %88 = getelementptr inbounds nuw %struct.PREDICATELOCKTARGET, ptr %87, i32 0, i32 1
  %89 = load ptr, ptr %9, align 8
  %90 = getelementptr inbounds nuw %struct.PREDICATELOCK, ptr %89, i32 0, i32 1
  call void @dlist_push_tail(ptr noundef %88, ptr noundef %90)
  %91 = load ptr, ptr %6, align 8
  %92 = getelementptr inbounds nuw %struct.SERIALIZABLEXACT, ptr %91, i32 0, i32 6
  %93 = load ptr, ptr %9, align 8
  %94 = getelementptr inbounds nuw %struct.PREDICATELOCK, ptr %93, i32 0, i32 2
  call void @dlist_push_tail(ptr noundef %92, ptr noundef %94)
  %95 = load ptr, ptr %9, align 8
  %96 = getelementptr inbounds nuw %struct.PREDICATELOCK, ptr %95, i32 0, i32 3
  store i64 -1, ptr %96, align 8
  br label %97

97:                                               ; preds = %86, %83
  %98 = load ptr, ptr %10, align 8
  call void @LWLockRelease(ptr noundef %98)
  %99 = call zeroext i1 @IsInParallelMode()
  br i1 %99, label %100, label %103

100:                                              ; preds = %97
  %101 = load ptr, ptr %6, align 8
  %102 = getelementptr inbounds nuw %struct.SERIALIZABLEXACT, ptr %101, i32 0, i32 9
  call void @LWLockRelease(ptr noundef %102)
  br label %103

103:                                              ; preds = %100, %97
  %104 = load ptr, ptr @MainLWLockArray, align 8
  %105 = getelementptr inbounds %union.LWLockPadded, ptr %104, i64 30
  call void @LWLockRelease(ptr noundef %105)
  call void @llvm.lifetime.end.p0(i64 1, ptr %11) #10
  call void @llvm.lifetime.end.p0(i64 8, ptr %10) #10
  call void @llvm.lifetime.end.p0(i64 8, ptr %9) #10
  call void @llvm.lifetime.end.p0(i64 16, ptr %8) #10
  call void @llvm.lifetime.end.p0(i64 8, ptr %7) #10
  ret void
}