; Function Attrs: nounwind uwtable
define internal fastcc void @CreatePredicateLock(ptr noundef %0, i32 noundef %1, ptr noundef %2) unnamed_addr #0 {
  %4 = alloca %struct.PREDICATELOCKTAG, align 8
  %5 = alloca i8, align 1
  call void @llvm.lifetime.start.p0(i64 16, ptr nonnull %4) #12
  call void @llvm.lifetime.start.p0(i64 1, ptr nonnull %5) #12
  %6 = load ptr, ptr @MainLWLockArray, align 8
  %7 = and i32 %1, 15
  %8 = zext nneg i32 %7 to i64
  %9 = getelementptr inbounds nuw %union.LWLockPadded, ptr %6, i64 %8
  %10 = getelementptr inbounds nuw i8, ptr %9, i64 25216
  %11 = getelementptr inbounds nuw i8, ptr %6, i64 3840
  %12 = tail call zeroext i1 @LWLockAcquire(ptr noundef nonnull %11, i32 noundef 1) #12
  %13 = tail call zeroext i1 @IsInParallelMode() #12
  br i1 %13, label %14, label %17

14:                                               ; preds = %3
  %15 = getelementptr inbounds nuw i8, ptr %2, i64 112
  %16 = tail call zeroext i1 @LWLockAcquire(ptr noundef nonnull %15, i32 noundef 0) #12
  br label %17

17:                                               ; preds = %14, %3
  %18 = tail call zeroext i1 @LWLockAcquire(ptr noundef nonnull %10, i32 noundef 0) #12
  %19 = load ptr, ptr @PredicateLockTargetHash, align 8
  %20 = call ptr @hash_search_with_hash_value(ptr noundef %19, ptr noundef %0, i32 noundef %1, i32 noundef 3, ptr noundef nonnull %5) #12
  %.not = icmp eq ptr %20, null
  br i1 %.not, label %21, label %26

21:                                               ; preds = %17
  %22 = call zeroext i1 @errstart_cold(i32 noundef 21, ptr noundef null) #13
  call void @llvm.assume(i1 %22)
  %23 = call i32 @errcode(i32 noundef 8389) #12
  %24 = call i32 (ptr, ...) @errmsg(ptr noundef nonnull @.str.21) #12
  %25 = call i32 (ptr, ...) @errhint(ptr noundef nonnull @.str.31, ptr noundef nonnull @.str.32) #12
  call void @errfinish(ptr noundef nonnull @.str.10, i32 noundef 2469, ptr noundef nonnull @__func__.CreatePredicateLock) #12
  unreachable

26:                                               ; preds = %17
  %27 = load i8, ptr %5, align 1, !range !4, !noundef !5
  %28 = trunc nuw i8 %27 to i1
  br i1 %28, label %32, label %29

29:                                               ; preds = %26
  %30 = getelementptr inbounds nuw i8, ptr %20, i64 16
  store ptr %30, ptr %30, align 8
  %31 = getelementptr inbounds nuw i8, ptr %20, i64 24
  store ptr %30, ptr %31, align 8
  br label %32

32:                                               ; preds = %29, %26
  store ptr %20, ptr %4, align 8
  %33 = getelementptr inbounds nuw i8, ptr %4, i64 8
  store ptr %2, ptr %33, align 8
  %34 = load ptr, ptr @PredicateLockHash, align 8
  %35 = ptrtoint ptr %2 to i64
  %36 = trunc i64 %35 to i32
  %37 = shl i32 %36, 4
  %38 = xor i32 %37, %1
  %39 = call ptr @hash_search_with_hash_value(ptr noundef %34, ptr noundef nonnull %4, i32 noundef %38, i32 noundef 3, ptr noundef nonnull %5) #12
  %.not18 = icmp eq ptr %39, null
  br i1 %.not18, label %40, label %45

40:                                               ; preds = %32
  %41 = call zeroext i1 @errstart_cold(i32 noundef 21, ptr noundef null) #13
  call void @llvm.assume(i1 %41)
  %42 = call i32 @errcode(i32 noundef 8389) #12
  %43 = call i32 (ptr, ...) @errmsg(ptr noundef nonnull @.str.21) #12
  %44 = call i32 (ptr, ...) @errhint(ptr noundef nonnull @.str.31, ptr noundef nonnull @.str.32) #12
  call void @errfinish(ptr noundef nonnull @.str.10, i32 noundef 2484, ptr noundef nonnull @__func__.CreatePredicateLock) #12
  unreachable

45:                                               ; preds = %32
  %46 = load i8, ptr %5, align 1, !range !4, !noundef !5
  %47 = trunc nuw i8 %46 to i1
  br i1 %47, label %68, label %48

48:                                               ; preds = %45
  %49 = getelementptr inbounds nuw i8, ptr %20, i64 16
  %50 = getelementptr inbounds nuw i8, ptr %39, i64 16
  %51 = getelementptr inbounds nuw i8, ptr %20, i64 24
  %52 = load ptr, ptr %51, align 8
  %53 = icmp eq ptr %52, null
  br i1 %53, label %54, label %dlist_push_tail.exit

54:                                               ; preds = %48
  store ptr %49, ptr %49, align 8
  store ptr %49, ptr %51, align 8
  br label %dlist_push_tail.exit

dlist_push_tail.exit:                             ; preds = %48, %54
  %55 = getelementptr inbounds nuw i8, ptr %39, i64 24
  store ptr %49, ptr %55, align 8
  %56 = load ptr, ptr %49, align 8
  store ptr %56, ptr %50, align 8
  %57 = getelementptr inbounds nuw i8, ptr %56, i64 8
  store ptr %50, ptr %57, align 8
  store ptr %50, ptr %49, align 8
  %58 = getelementptr inbounds nuw i8, ptr %2, i64 64
  %59 = getelementptr inbounds nuw i8, ptr %39, i64 32
  %60 = getelementptr inbounds nuw i8, ptr %2, i64 72
  %61 = load ptr, ptr %60, align 8
  %62 = icmp eq ptr %61, null
  br i1 %62, label %63, label %dlist_push_tail.exit19

63:                                               ; preds = %dlist_push_tail.exit
  store ptr %58, ptr %58, align 8
  store ptr %58, ptr %60, align 8
  br label %dlist_push_tail.exit19

dlist_push_tail.exit19:                           ; preds = %dlist_push_tail.exit, %63
  %64 = getelementptr inbounds nuw i8, ptr %39, i64 40
  store ptr %58, ptr %64, align 8
  %65 = load ptr, ptr %58, align 8
  store ptr %65, ptr %59, align 8
  %66 = getelementptr inbounds nuw i8, ptr %65, i64 8
  store ptr %59, ptr %66, align 8
  store ptr %59, ptr %58, align 8
  %67 = getelementptr inbounds nuw i8, ptr %39, i64 48
  store i64 -1, ptr %67, align 8
  br label %68

68:                                               ; preds = %dlist_push_tail.exit19, %45
  call void @LWLockRelease(ptr noundef nonnull %10) #12
  %69 = call zeroext i1 @IsInParallelMode() #12
  br i1 %69, label %70, label %72

70:                                               ; preds = %68
  %71 = getelementptr inbounds nuw i8, ptr %2, i64 112
  call void @LWLockRelease(ptr noundef nonnull %71) #12
  br label %72

72:                                               ; preds = %70, %68
  %73 = load ptr, ptr @MainLWLockArray, align 8
  %74 = getelementptr inbounds nuw i8, ptr %73, i64 3840
  call void @LWLockRelease(ptr noundef nonnull %74) #12
  call void @llvm.lifetime.end.p0(i64 1, ptr nonnull %5) #12
  call void @llvm.lifetime.end.p0(i64 16, ptr nonnull %4) #12
  ret void
}